; Function Attrs: nounwind uwtable
define internal fastcc void @_jumbleRangeFunction(ptr noundef %0, ptr noundef nonnull readonly captures(none) %1) unnamed_addr #0 {
  %3 = getelementptr inbounds nuw i8, ptr %1, i64 4
  %4 = load ptr, ptr %0, align 8
  %5 = getelementptr inbounds nuw i8, ptr %0, i64 8
  %6 = load i64, ptr %5, align 8
  br label %.lr.ph.i

.lr.ph.i:                                         ; preds = %10, %2
  %.026.i = phi ptr [ %15, %10 ], [ %3, %2 ]
  %.02125.i = phi i64 [ %16, %10 ], [ 1, %2 ]
  %.02224.i = phi i64 [ %14, %10 ], [ %6, %2 ]
  %7 = icmp ugt i64 %.02224.i, 1023
  br i1 %7, label %8, label %10

8:                                                ; preds = %.lr.ph.i
  %9 = tail call i64 @hash_bytes_extended(ptr noundef %4, i32 noundef 1024, i64 noundef 0) #9
  store i64 %9, ptr %4, align 1
  br label %10

10:                                               ; preds = %8, %.lr.ph.i
  %.1.i = phi i64 [ 8, %8 ], [ %.02224.i, %.lr.ph.i ]
  %11 = sub nuw nsw i64 1024, %.1.i
  %12 = tail call i64 @llvm.umin.i64(i64 %.02125.i, i64 %11)
  %13 = getelementptr inbounds nuw i8, ptr %4, i64 %.1.i
  tail call void @llvm.memcpy.p0.p0.i64(ptr noundef nonnull align 1 dereferenceable(1) %13, ptr noundef nonnull align 1 dereferenceable(1) %.026.i, i64 %12, i1 false)
  %14 = add nuw nsw i64 %12, %.1.i
  %15 = getelementptr inbounds nuw i8, ptr %.026.i, i64 %12
  %16 = sub i64 %.02125.i, %12
  %.not.i = icmp eq i64 %16, 0
  br i1 %.not.i, label %AppendJumble.exit, label %.lr.ph.i, !llvm.loop !7

AppendJumble.exit:                                ; preds = %10
  store i64 %14, ptr %5, align 8
  %17 = getelementptr inbounds nuw i8, ptr %1, i64 5
  %18 = load ptr, ptr %0, align 8
  br label %.lr.ph.i13

.lr.ph.i13:                                       ; preds = %22, %AppendJumble.exit
  %.026.i14 = phi ptr [ %27, %22 ], [ %17, %AppendJumble.exit ]
  %.02125.i15 = phi i64 [ %28, %22 ], [ 1, %AppendJumble.exit ]
  %.02224.i16 = phi i64 [ %26, %22 ], [ %14, %AppendJumble.exit ]
  %19 = icmp ugt i64 %.02224.i16, 1023
  br i1 %19, label %20, label %22

20:                                               ; preds = %.lr.ph.i13
  %21 = tail call i64 @hash_bytes_extended(ptr noundef %18, i32 noundef 1024, i64 noundef 0) #9
  store i64 %21, ptr %18, align 1
  br label %22

22:                                               ; preds = %20, %.lr.ph.i13
  %.1.i17 = phi i64 [ 8, %20 ], [ %.02224.i16, %.lr.ph.i13 ]
  %23 = sub nuw nsw i64 1024, %.1.i17
  %24 = tail call i64 @llvm.umin.i64(i64 %.02125.i15, i64 %23)
  %25 = getelementptr inbounds nuw i8, ptr %18, i64 %.1.i17
  tail call void @llvm.memcpy.p0.p0.i64(ptr noundef nonnull align 1 dereferenceable(1) %25, ptr noundef nonnull align 1 dereferenceable(1) %.026.i14, i64 %24, i1 false)
  %26 = add nuw nsw i64 %24, %.1.i17
  %27 = getelementptr inbounds nuw i8, ptr %.026.i14, i64 %24
  %28 = sub i64 %.02125.i15, %24
  %.not.i18 = icmp eq i64 %28, 0
  br i1 %.not.i18, label %AppendJumble.exit19, label %.lr.ph.i13, !llvm.loop !7

AppendJumble.exit19:                              ; preds = %22
  store i64 %26, ptr %5, align 8
  %29 = getelementptr inbounds nuw i8, ptr %1, i64 6
  %30 = load ptr, ptr %0, align 8
  br label %.lr.ph.i20

.lr.ph.i20:                                       ; preds = %34, %AppendJumble.exit19
  %.026.i21 = phi ptr [ %39, %34 ], [ %29, %AppendJumble.exit19 ]
  %.02125.i22 = phi i64 [ %40, %34 ], [ 1, %AppendJumble.exit19 ]
  %.02224.i23 = phi i64 [ %38, %34 ], [ %26, %AppendJumble.exit19 ]
  %31 = icmp ugt i64 %.02224.i23, 1023
  br i1 %31, label %32, label %34

32:                                               ; preds = %.lr.ph.i20
  %33 = tail call i64 @hash_bytes_extended(ptr noundef %30, i32 noundef 1024, i64 noundef 0) #9
  store i64 %33, ptr %30, align 1
  br label %34

34:                                               ; preds = %32, %.lr.ph.i20
  %.1.i24 = phi i64 [ 8, %32 ], [ %.02224.i23, %.lr.ph.i20 ]
  %35 = sub nuw nsw i64 1024, %.1.i24
  %36 = tail call i64 @llvm.umin.i64(i64 %.02125.i22, i64 %35)
  %37 = getelementptr inbounds nuw i8, ptr %30, i64 %.1.i24
  tail call void @llvm.memcpy.p0.p0.i64(ptr noundef nonnull align 1 dereferenceable(1) %37, ptr noundef nonnull align 1 dereferenceable(1) %.026.i21, i64 %36, i1 false)
  %38 = add nuw nsw i64 %36, %.1.i24
  %39 = getelementptr inbounds nuw i8, ptr %.026.i21, i64 %36
  %40 = sub i64 %.02125.i22, %36
  %.not.i25 = icmp eq i64 %40, 0
  br i1 %.not.i25, label %AppendJumble.exit26, label %.lr.ph.i20, !llvm.loop !7

AppendJumble.exit26:                              ; preds = %34
  store i64 %38, ptr %5, align 8
  %41 = getelementptr inbounds nuw i8, ptr %1, i64 8
  %42 = load ptr, ptr %41, align 8
  tail call fastcc void @_jumbleNode(ptr noundef nonnull %0, ptr noundef %42)
  %43 = getelementptr inbounds nuw i8, ptr %1, i64 16
  %44 = load ptr, ptr %43, align 8
  tail call fastcc void @_jumbleNode(ptr noundef nonnull %0, ptr noundef %44)
  %45 = getelementptr inbounds nuw i8, ptr %1, i64 24
  %46 = load ptr, ptr %45, align 8
  tail call fastcc void @_jumbleNode(ptr noundef nonnull %0, ptr noundef %46)
  ret void
}